target datalayout = "e-m:e-p270:32:32-p271:32:32-p272:64:64-i64:64-i128:128-f80:128-n8:16:32:64-S128"
target triple = "x86_64-pc-linux-gnu"

%struct.bio_st = type { ptr, ptr, ptr, i32, i32, i32, i32, i32, i32, ptr, ptr, i64, i64 }
%struct.bio_f_buffer_ctx_struct = type { i32, i32, ptr, i32, i32, ptr, i32, i32 }

; Function Attrs: nounwind uwtable
define internal i32 @buffer_gets(ptr noundef %0, ptr noundef %1, i32 noundef %2) #0 {
  %4 = alloca i32, align 4
  %5 = alloca ptr, align 8
  %6 = alloca ptr, align 8
  %7 = alloca i32, align 4
  %8 = alloca ptr, align 8
  %9 = alloca i32, align 4
  %10 = alloca i32, align 4
  %11 = alloca i32, align 4
  %12 = alloca ptr, align 8
  %13 = alloca i32, align 4
  store ptr %0, ptr %5, align 8, !tbaa !6
  store ptr %1, ptr %6, align 8, !tbaa !13
  store i32 %2, ptr %7, align 4, !tbaa !11
  call void @llvm.lifetime.start.p0(i64 8, ptr %8) #8
  call void @llvm.lifetime.start.p0(i64 4, ptr %9) #8
  store i32 0, ptr %9, align 4, !tbaa !11
  call void @llvm.lifetime.start.p0(i64 4, ptr %10) #8
  call void @llvm.lifetime.start.p0(i64 4, ptr %11) #8
  call void @llvm.lifetime.start.p0(i64 8, ptr %12) #8
  %14 = load ptr, ptr %5, align 8, !tbaa !6
  %15 = getelementptr inbounds nuw %struct.bio_st, ptr %14, i32 0, i32 9
  %16 = load ptr, ptr %15, align 8, !tbaa !15
  store ptr %16, ptr %8, align 8, !tbaa !19
  %17 = load ptr, ptr %6, align 8, !tbaa !13
  %18 = icmp eq ptr %17, null
  br i1 %18, label %22, label %19

19:                                               ; preds = %3
  %20 = load i32, ptr %7, align 4, !tbaa !11
  %21 = icmp sle i32 %20, 0
  br i1 %21, label %22, label %23

22:                                               ; preds = %19, %3
  store i32 0, ptr %4, align 4
  store i32 1, ptr %13, align 4
  br label %137

23:                                               ; preds = %19
  %24 = load i32, ptr %7, align 4, !tbaa !11
  %25 = add nsw i32 %24, -1
  store i32 %25, ptr %7, align 4, !tbaa !11
  %26 = load ptr, ptr %5, align 8, !tbaa !6
  call void @BIO_clear_retry_flags(ptr noundef %26)
  br label %27

27:                                               ; preds = %136, %23
  %28 = load ptr, ptr %8, align 8, !tbaa !19
  %29 = getelementptr inbounds nuw %struct.bio_f_buffer_ctx_struct, ptr %28, i32 0, i32 3
  %30 = load i32, ptr %29, align 8, !tbaa !29
  %31 = icmp sgt i32 %30, 0
  br i1 %31, label %32, label %101

32:                                               ; preds = %27
  %33 = load ptr, ptr %8, align 8, !tbaa !19
  %34 = getelementptr inbounds nuw %struct.bio_f_buffer_ctx_struct, ptr %33, i32 0, i32 2
  %35 = load ptr, ptr %34, align 8, !tbaa !30
  %36 = load ptr, ptr %8, align 8, !tbaa !19
  %37 = getelementptr inbounds nuw %struct.bio_f_buffer_ctx_struct, ptr %36, i32 0, i32 4
  %38 = load i32, ptr %37, align 4, !tbaa !31
  %39 = sext i32 %38 to i64
  %40 = getelementptr inbounds i8, ptr %35, i64 %39
  store ptr %40, ptr %12, align 8, !tbaa !13
  store i32 0, ptr %11, align 4, !tbaa !11
  store i32 0, ptr %10, align 4, !tbaa !11
  br label %41

41:                                               ; preds = %72, %32
  %42 = load i32, ptr %10, align 4, !tbaa !11
  %43 = load ptr, ptr %8, align 8, !tbaa !19
  %44 = getelementptr inbounds nuw %struct.bio_f_buffer_ctx_struct, ptr %43, i32 0, i32 3
  %45 = load i32, ptr %44, align 8, !tbaa !29
  %46 = icmp slt i32 %42, %45
  br i1 %46, label %47, label %51

47:                                               ; preds = %41
  %48 = load i32, ptr %10, align 4, !tbaa !11
  %49 = load i32, ptr %7, align 4, !tbaa !11
  %50 = icmp slt i32 %48, %49
  br label %51

51:                                               ; preds = %47, %41
  %52 = phi i1 [ false, %41 ], [ %50, %47 ]
  br i1 %52, label %53, label %75

53:                                               ; preds = %51
  %54 = load ptr, ptr %12, align 8, !tbaa !13
  %55 = load i32, ptr %10, align 4, !tbaa !11
  %56 = sext i32 %55 to i64
  %57 = getelementptr inbounds i8, ptr %54, i64 %56
  %58 = load i8, ptr %57, align 1, !tbaa !33
  %59 = load ptr, ptr %6, align 8, !tbaa !13
  %60 = getelementptr inbounds nuw i8, ptr %59, i32 1
  store ptr %60, ptr %6, align 8, !tbaa !13
  store i8 %58, ptr %59, align 1, !tbaa !33
  %61 = load ptr, ptr %12, align 8, !tbaa !13
  %62 = load i32, ptr %10, align 4, !tbaa !11
  %63 = sext i32 %62 to i64
  %64 = getelementptr inbounds i8, ptr %61, i64 %63
  %65 = load i8, ptr %64, align 1, !tbaa !33
  %66 = sext i8 %65 to i32
  %67 = icmp eq i32 %66, 10
  br i1 %67, label %68, label %71

68:                                               ; preds = %53
  store i32 1, ptr %11, align 4, !tbaa !11
  %69 = load i32, ptr %10, align 4, !tbaa !11
  %70 = add nsw i32 %69, 1
  store i32 %70, ptr %10, align 4, !tbaa !11
  br label %75

71:                                               ; preds = %53
  br label %72

72:                                               ; preds = %71
  %73 = load i32, ptr %10, align 4, !tbaa !11
  %74 = add nsw i32 %73, 1
  store i32 %74, ptr %10, align 4, !tbaa !11
  br label %41, !llvm.loop !34

75:                                               ; preds = %68, %51
  %76 = load i32, ptr %10, align 4, !tbaa !11
  %77 = load i32, ptr %9, align 4, !tbaa !11
  %78 = add nsw i32 %77, %76
  store i32 %78, ptr %9, align 4, !tbaa !11
  %79 = load i32, ptr %10, align 4, !tbaa !11
  %80 = load i32, ptr %7, align 4, !tbaa !11
  %81 = sub nsw i32 %80, %79
  store i32 %81, ptr %7, align 4, !tbaa !11
  %82 = load i32, ptr %10, align 4, !tbaa !11
  %83 = load ptr, ptr %8, align 8, !tbaa !19
  %84 = getelementptr inbounds nuw %struct.bio_f_buffer_ctx_struct, ptr %83, i32 0, i32 3
  %85 = load i32, ptr %84, align 8, !tbaa !29
  %86 = sub nsw i32 %85, %82
  store i32 %86, ptr %84, align 8, !tbaa !29
  %87 = load i32, ptr %10, align 4, !tbaa !11
  %88 = load ptr, ptr %8, align 8, !tbaa !19
  %89 = getelementptr inbounds nuw %struct.bio_f_buffer_ctx_struct, ptr %88, i32 0, i32 4
  %90 = load i32, ptr %89, align 4, !tbaa !31
  %91 = add nsw i32 %90, %87
  store i32 %91, ptr %89, align 4, !tbaa !31
  %92 = load i32, ptr %11, align 4, !tbaa !11
  %93 = icmp ne i32 %92, 0
  br i1 %93, label %97, label %94

94:                                               ; preds = %75
  %95 = load i32, ptr %7, align 4, !tbaa !11
  %96 = icmp eq i32 %95, 0
  br i1 %96, label %97, label %100

97:                                               ; preds = %94, %75
  %98 = load ptr, ptr %6, align 8, !tbaa !13
  store i8 0, ptr %98, align 1, !tbaa !33
  %99 = load i32, ptr %9, align 4, !tbaa !11
  store i32 %99, ptr %4, align 4
  store i32 1, ptr %13, align 4
  br label %137

100:                                              ; preds = %94
  br label %136

101:                                              ; preds = %27
  %102 = load ptr, ptr %5, align 8, !tbaa !6
  %103 = getelementptr inbounds nuw %struct.bio_st, ptr %102, i32 0, i32 10
  %104 = load ptr, ptr %103, align 8, !tbaa !21
  %105 = load ptr, ptr %8, align 8, !tbaa !19
  %106 = getelementptr inbounds nuw %struct.bio_f_buffer_ctx_struct, ptr %105, i32 0, i32 2
  %107 = load ptr, ptr %106, align 8, !tbaa !30
  %108 = load ptr, ptr %8, align 8, !tbaa !19
  %109 = getelementptr inbounds nuw %struct.bio_f_buffer_ctx_struct, ptr %108, i32 0, i32 0
  %110 = load i32, ptr %109, align 8, !tbaa !32
  %111 = call i32 @BIO_read(ptr noundef %104, ptr noundef %107, i32 noundef %110)
  store i32 %111, ptr %10, align 4, !tbaa !11
  %112 = load i32, ptr %10, align 4, !tbaa !11
  %113 = icmp sle i32 %112, 0
  br i1 %113, label %114, label %130

114:                                              ; preds = %101
  %115 = load ptr, ptr %5, align 8, !tbaa !6
  call void @BIO_copy_next_retry(ptr noundef %115)
  %116 = load ptr, ptr %6, align 8, !tbaa !13
  store i8 0, ptr %116, align 1, !tbaa !33
  %117 = load i32, ptr %10, align 4, !tbaa !11
  %118 = icmp slt i32 %117, 0
  br i1 %118, label %119, label %128

119:                                              ; preds = %114
  %120 = load i32, ptr %9, align 4, !tbaa !11
  %121 = icmp sgt i32 %120, 0
  br i1 %121, label %122, label %124

122:                                              ; preds = %119
  %123 = load i32, ptr %9, align 4, !tbaa !11
  br label %126

124:                                              ; preds = %119
  %125 = load i32, ptr %10, align 4, !tbaa !11
  br label %126

126:                                              ; preds = %124, %122
  %127 = phi i32 [ %123, %122 ], [ %125, %124 ]
  store i32 %127, ptr %4, align 4
  store i32 1, ptr %13, align 4
  br label %137

128:                                              ; preds = %114
  %129 = load i32, ptr %9, align 4, !tbaa !11
  store i32 %129, ptr %4, align 4
  store i32 1, ptr %13, align 4
  br label %137

130:                                              ; preds = %101
  %131 = load i32, ptr %10, align 4, !tbaa !11
  %132 = load ptr, ptr %8, align 8, !tbaa !19
  %133 = getelementptr inbounds nuw %struct.bio_f_buffer_ctx_struct, ptr %132, i32 0, i32 3
  store i32 %131, ptr %133, align 8, !tbaa !29
  %134 = load ptr, ptr %8, align 8, !tbaa !19
  %135 = getelementptr inbounds nuw %struct.bio_f_buffer_ctx_struct, ptr %134, i32 0, i32 4
  store i32 0, ptr %135, align 4, !tbaa !31
  br label %136

136:                                              ; preds = %130, %100
  br label %27

137:                                              ; preds = %128, %126, %97, %22
  call void @llvm.lifetime.end.p0(i64 8, ptr %12) #8
  call void @llvm.lifetime.end.p0(i64 4, ptr %11) #8
  call void @llvm.lifetime.end.p0(i64 4, ptr %10) #8
  call void @llvm.lifetime.end.p0(i64 4, ptr %9) #8
  call void @llvm.lifetime.end.p0(i64 8, ptr %8) #8
  %138 = load i32, ptr %4, align 4
  ret i32 %138
}