; Function Attrs: nounwind uwtable
define internal i32 @buffer_gets(ptr noundef %0, ptr noundef writeonly captures(address_is_null) %1, i32 noundef %2) #1 {
  %4 = getelementptr inbounds nuw i8, ptr %0, i64 48
  %5 = load ptr, ptr %4, align 8, !tbaa !6
  %6 = icmp eq ptr %1, null
  %7 = icmp slt i32 %2, 1
  %or.cond = or i1 %6, %7
  br i1 %or.cond, label %59, label %8

8:                                                ; preds = %3
  %9 = add nsw i32 %2, -1
  tail call void @BIO_clear_retry_flags(ptr noundef nonnull %0) #11
  %10 = getelementptr inbounds nuw i8, ptr %5, i64 16
  %11 = getelementptr inbounds nuw i8, ptr %0, i64 56
  %12 = getelementptr inbounds nuw i8, ptr %5, i64 8
  %13 = getelementptr inbounds nuw i8, ptr %5, i64 20
  %.pre = load i32, ptr %10, align 8, !tbaa !24
  br label %.outer

.outer:                                           ; preds = %.loopexit, %8
  %.ph = phi i32 [ %42, %.loopexit ], [ %.pre, %8 ]
  %.054.ph = phi i32 [ %41, %.loopexit ], [ %9, %8 ]
  %.052.ph = phi ptr [ %.2, %.loopexit ], [ %1, %8 ]
  %.050.ph = phi i32 [ %40, %.loopexit ], [ 0, %8 ]
  br label %14

14:                                               ; preds = %.outer, %58
  %15 = phi i32 [ %51, %58 ], [ %.ph, %.outer ]
  %16 = icmp sgt i32 %15, 0
  br i1 %16, label %17, label %47

17:                                               ; preds = %14
  %18 = load ptr, ptr %12, align 8, !tbaa !25
  %19 = load i32, ptr %13, align 4, !tbaa !26
  %20 = sext i32 %19 to i64
  %21 = getelementptr inbounds i8, ptr %18, i64 %20
  %22 = icmp sgt i32 %.054.ph, 0
  br i1 %22, label %.lr.ph.preheader, label %.loopexit

.lr.ph.preheader:                                 ; preds = %17
  %23 = zext nneg i32 %.054.ph to i64
  br label %.lr.ph

.lr.ph:                                           ; preds = %.lr.ph.preheader, %31
  %indvars.iv = phi i64 [ 0, %.lr.ph.preheader ], [ %indvars.iv.next, %31 ]
  %.15369 = phi ptr [ %.052.ph, %.lr.ph.preheader ], [ %26, %31 ]
  %24 = getelementptr inbounds nuw i8, ptr %21, i64 %indvars.iv
  %25 = load i8, ptr %24, align 1, !tbaa !28
  %26 = getelementptr inbounds nuw i8, ptr %.15369, i64 1
  store i8 %25, ptr %.15369, align 1, !tbaa !28
  %27 = icmp eq i8 %25, 10
  br i1 %27, label %28, label %31

28:                                               ; preds = %.lr.ph
  %29 = trunc nuw nsw i64 %indvars.iv to i32
  %30 = add nuw nsw i32 %29, 1
  %.pre81 = load i32, ptr %10, align 8, !tbaa !24
  br label %.loopexit

31:                                               ; preds = %.lr.ph
  %indvars.iv.next = add nuw nsw i64 %indvars.iv, 1
  %32 = load i32, ptr %10, align 8, !tbaa !24
  %33 = sext i32 %32 to i64
  %34 = icmp slt i64 %indvars.iv.next, %33
  %35 = icmp samesign ult i64 %indvars.iv.next, %23
  %36 = select i1 %34, i1 %35, i1 false
  br i1 %36, label %.lr.ph, label %.loopexit.loopexit, !llvm.loop !29

.loopexit.loopexit:                               ; preds = %31
  %37 = trunc nuw nsw i64 %indvars.iv.next to i32
  br label %.loopexit

.loopexit:                                        ; preds = %.loopexit.loopexit, %17, %28
  %38 = phi i32 [ %.pre81, %28 ], [ %15, %17 ], [ %32, %.loopexit.loopexit ]
  %39 = phi i1 [ true, %28 ], [ false, %17 ], [ false, %.loopexit.loopexit ]
  %.2 = phi ptr [ %26, %28 ], [ %.052.ph, %17 ], [ %26, %.loopexit.loopexit ]
  %.1 = phi i32 [ %30, %28 ], [ 0, %17 ], [ %37, %.loopexit.loopexit ]
  %40 = add nsw i32 %.1, %.050.ph
  %41 = sub nsw i32 %.054.ph, %.1
  %42 = sub nsw i32 %38, %.1
  store i32 %42, ptr %10, align 8, !tbaa !24
  %43 = load i32, ptr %13, align 4, !tbaa !26
  %44 = add nsw i32 %43, %.1
  store i32 %44, ptr %13, align 4, !tbaa !26
  %45 = icmp eq i32 %41, 0
  %or.cond3 = select i1 %39, i1 true, i1 %45
  br i1 %or.cond3, label %46, label %.outer

46:                                               ; preds = %.loopexit
  store i8 0, ptr %.2, align 1, !tbaa !28
  br label %59

47:                                               ; preds = %14
  %48 = load ptr, ptr %11, align 8, !tbaa !16
  %49 = load ptr, ptr %12, align 8, !tbaa !25
  %50 = load i32, ptr %5, align 8, !tbaa !27
  %51 = tail call i32 @BIO_read(ptr noundef %48, ptr noundef %49, i32 noundef %50) #11
  %52 = icmp slt i32 %51, 1
  br i1 %52, label %53, label %58

53:                                               ; preds = %47
  tail call void @BIO_copy_next_retry(ptr noundef nonnull %0) #11
  store i8 0, ptr %.052.ph, align 1, !tbaa !28
  %54 = icmp slt i32 %51, 0
  br i1 %54, label %55, label %59

55:                                               ; preds = %53
  %56 = icmp sgt i32 %.050.ph, 0
  %57 = select i1 %56, i32 %.050.ph, i32 %51
  br label %59

58:                                               ; preds = %47
  store i32 %51, ptr %10, align 8, !tbaa !24
  store i32 0, ptr %13, align 4, !tbaa !26
  br label %14

59:                                               ; preds = %53, %3, %55, %46
  %.0 = phi i32 [ %40, %46 ], [ %57, %55 ], [ 0, %3 ], [ %.050.ph, %53 ]
  ret i32 %.0
}